; ModuleID = '46/3413.c'
source_filename = "46/3413.c"
target datalayout = "e-m:e-p270:32:32-p271:32:32-p272:64:64-i64:64-f80:128-n8:16:32:64-S128"
target triple = "x86_64-pc-linux-gnu"

@.str = private unnamed_addr constant [5 x i8] c"%d%d\00", align 1
@.str.1 = private unnamed_addr constant [3 x i8] c"%d\00", align 1
@.str.2 = private unnamed_addr constant [4 x i8] c"%d\0A\00", align 1

; Function Attrs: noinline nounwind uwtable
define dso_local i32 @main() #0 {
  %1 = alloca i32, align 4
  %2 = alloca [100 x [100 x i32]], align 16
  %3 = alloca i32, align 4
  %4 = alloca i32, align 4
  %5 = alloca i32, align 4
  %6 = alloca i32, align 4
  %7 = alloca i32, align 4
  %8 = alloca i32, align 4
  %9 = alloca i32, align 4
  store i32 0, i32* %1, align 4
  store i32 0, i32* %3, align 4
  %10 = call i32 (i8*, ...) @__isoc99_scanf(i8* getelementptr inbounds ([5 x i8], [5 x i8]* @.str, i64 0, i64 0), i32* %6, i32* %7)
  store i32 0, i32* %5, align 4
  br label %11

11:                                               ; preds = %32, %0
  %12 = load i32, i32* %5, align 4
  %13 = load i32, i32* %6, align 4
  %14 = icmp slt i32 %12, %13
  br i1 %14, label %15, label %35

15:                                               ; preds = %11
  store i32 0, i32* %8, align 4
  br label %16

16:                                               ; preds = %28, %15
  %17 = load i32, i32* %8, align 4
  %18 = load i32, i32* %7, align 4
  %19 = icmp slt i32 %17, %18
  br i1 %19, label %20, label %31

20:                                               ; preds = %16
  %21 = load i32, i32* %5, align 4
  %22 = sext i32 %21 to i64
  %23 = getelementptr inbounds [100 x [100 x i32]], [100 x [100 x i32]]* %2, i64 0, i64 %22
  %24 = load i32, i32* %8, align 4
  %25 = sext i32 %24 to i64
  %26 = getelementptr inbounds [100 x i32], [100 x i32]* %23, i64 0, i64 %25
  %27 = call i32 (i8*, ...) @__isoc99_scanf(i8* getelementptr inbounds ([3 x i8], [3 x i8]* @.str.1, i64 0, i64 0), i32* %26)
  br label %28

28:                                               ; preds = %20
  %29 = load i32, i32* %8, align 4
  %30 = add nsw i32 %29, 1
  store i32 %30, i32* %8, align 4
  br label %16

31:                                               ; preds = %16
  br label %32

32:                                               ; preds = %31
  %33 = load i32, i32* %5, align 4
  %34 = add nsw i32 %33, 1
  store i32 %34, i32* %5, align 4
  br label %11

35:                                               ; preds = %11
  store i32 0, i32* %9, align 4
  br label %36

36:                                               ; preds = %169, %35
  %37 = load i32, i32* %3, align 4
  %38 = load i32, i32* %6, align 4
  %39 = load i32, i32* %7, align 4
  %40 = mul nsw i32 %38, %39
  %41 = icmp slt i32 %37, %40
  br i1 %41, label %42, label %172

42:                                               ; preds = %36
  %43 = load i32, i32* %9, align 4
  store i32 %43, i32* %4, align 4
  br label %44

44:                                               ; preds = %68, %42
  %45 = load i32, i32* %4, align 4
  %46 = load i32, i32* %7, align 4
  %47 = load i32, i32* %9, align 4
  %48 = sub nsw i32 %46, %47
  %49 = icmp slt i32 %45, %48
  br i1 %49, label %50, label %71

50:                                               ; preds = %44
  %51 = load i32, i32* %9, align 4
  %52 = sext i32 %51 to i64
  %53 = getelementptr inbounds [100 x [100 x i32]], [100 x [100 x i32]]* %2, i64 0, i64 %52
  %54 = load i32, i32* %4, align 4
  %55 = sext i32 %54 to i64
  %56 = getelementptr inbounds [100 x i32], [100 x i32]* %53, i64 0, i64 %55
  %57 = load i32, i32* %56, align 4
  %58 = call i32 (i8*, ...) @printf(i8* getelementptr inbounds ([4 x i8], [4 x i8]* @.str.2, i64 0, i64 0), i32 %57)
  %59 = load i32, i32* %3, align 4
  %60 = add nsw i32 %59, 1
  store i32 %60, i32* %3, align 4
  %61 = load i32, i32* %3, align 4
  %62 = load i32, i32* %6, align 4
  %63 = load i32, i32* %7, align 4
  %64 = mul nsw i32 %62, %63
  %65 = icmp eq i32 %61, %64
  br i1 %65, label %66, label %67

66:                                               ; preds = %50
  store i32 0, i32* %1, align 4
  br label %173

67:                                               ; preds = %50
  br label %68

68:                                               ; preds = %67
  %69 = load i32, i32* %4, align 4
  %70 = add nsw i32 %69, 1
  store i32 %70, i32* %4, align 4
  br label %44

71:                                               ; preds = %44
  %72 = load i32, i32* %9, align 4
  %73 = add nsw i32 %72, 1
  store i32 %73, i32* %4, align 4
  br label %74

74:                                               ; preds = %101, %71
  %75 = load i32, i32* %4, align 4
  %76 = load i32, i32* %6, align 4
  %77 = load i32, i32* %9, align 4
  %78 = sub nsw i32 %76, %77
  %79 = icmp slt i32 %75, %78
  br i1 %79, label %80, label %104

80:                                               ; preds = %74
  %81 = load i32, i32* %4, align 4
  %82 = sext i32 %81 to i64
  %83 = getelementptr inbounds [100 x [100 x i32]], [100 x [100 x i32]]* %2, i64 0, i64 %82
  %84 = load i32, i32* %7, align 4
  %85 = sub nsw i32 %84, 1
  %86 = load i32, i32* %9, align 4
  %87 = sub nsw i32 %85, %86
  %88 = sext i32 %87 to i64
  %89 = getelementptr inbounds [100 x i32], [100 x i32]* %83, i64 0, i64 %88
  %90 = load i32, i32* %89, align 4
  %91 = call i32 (i8*, ...) @printf(i8* getelementptr inbounds ([4 x i8], [4 x i8]* @.str.2, i64 0, i64 0), i32 %90)
  %92 = load i32, i32* %3, align 4
  %93 = add nsw i32 %92, 1
  store i32 %93, i32* %3, align 4
  %94 = load i32, i32* %3, align 4
  %95 = load i32, i32* %6, align 4
  %96 = load i32, i32* %7, align 4
  %97 = mul nsw i32 %95, %96
  %98 = icmp eq i32 %94, %97
  br i1 %98, label %99, label %100

99:                                               ; preds = %80
  store i32 0, i32* %1, align 4
  br label %173

100:                                              ; preds = %80
  br label %101

101:                                              ; preds = %100
  %102 = load i32, i32* %4, align 4
  %103 = add nsw i32 %102, 1
  store i32 %103, i32* %4, align 4
  br label %74

104:                                              ; preds = %74
  %105 = load i32, i32* %7, align 4
  %106 = sub nsw i32 %105, 2
  %107 = load i32, i32* %9, align 4
  %108 = sub nsw i32 %106, %107
  store i32 %108, i32* %4, align 4
  br label %109

109:                                              ; preds = %135, %104
  %110 = load i32, i32* %4, align 4
  %111 = load i32, i32* %9, align 4
  %112 = sub nsw i32 %111, 1
  %113 = icmp sgt i32 %110, %112
  br i1 %113, label %114, label %138

114:                                              ; preds = %109
  %115 = load i32, i32* %6, align 4
  %116 = sub nsw i32 %115, 1
  %117 = load i32, i32* %9, align 4
  %118 = sub nsw i32 %116, %117
  %119 = sext i32 %118 to i64
  %120 = getelementptr inbounds [100 x [100 x i32]], [100 x [100 x i32]]* %2, i64 0, i64 %119
  %121 = load i32, i32* %4, align 4
  %122 = sext i32 %121 to i64
  %123 = getelementptr inbounds [100 x i32], [100 x i32]* %120, i64 0, i64 %122
  %124 = load i32, i32* %123, align 4
  %125 = call i32 (i8*, ...) @printf(i8* getelementptr inbounds ([4 x i8], [4 x i8]* @.str.2, i64 0, i64 0), i32 %124)
  %126 = load i32, i32* %3, align 4
  %127 = add nsw i32 %126, 1
  store i32 %127, i32* %3, align 4
  %128 = load i32, i32* %3, align 4
  %129 = load i32, i32* %6, align 4
  %130 = load i32, i32* %7, align 4
  %131 = mul nsw i32 %129, %130
  %132 = icmp eq i32 %128, %131
  br i1 %132, label %133, label %134

133:                                              ; preds = %114
  store i32 0, i32* %1, align 4
  br label %173

134:                                              ; preds = %114
  br label %135

135:                                              ; preds = %134
  %136 = load i32, i32* %4, align 4
  %137 = add nsw i32 %136, -1
  store i32 %137, i32* %4, align 4
  br label %109

138:                                              ; preds = %109
  %139 = load i32, i32* %6, align 4
  %140 = sub nsw i32 %139, 2
  %141 = load i32, i32* %9, align 4
  %142 = sub nsw i32 %140, %141
  store i32 %142, i32* %4, align 4
  br label %143

143:                                              ; preds = %165, %138
  %144 = load i32, i32* %4, align 4
  %145 = load i32, i32* %9, align 4
  %146 = icmp sgt i32 %144, %145
  br i1 %146, label %147, label %168

147:                                              ; preds = %143
  %148 = load i32, i32* %4, align 4
  %149 = sext i32 %148 to i64
  %150 = getelementptr inbounds [100 x [100 x i32]], [100 x [100 x i32]]* %2, i64 0, i64 %149
  %151 = load i32, i32* %9, align 4
  %152 = sext i32 %151 to i64
  %153 = getelementptr inbounds [100 x i32], [100 x i32]* %150, i64 0, i64 %152
  %154 = load i32, i32* %153, align 4
  %155 = call i32 (i8*, ...) @printf(i8* getelementptr inbounds ([4 x i8], [4 x i8]* @.str.2, i64 0, i64 0), i32 %154)
  %156 = load i32, i32* %3, align 4
  %157 = add nsw i32 %156, 1
  store i32 %157, i32* %3, align 4
  %158 = load i32, i32* %3, align 4
  %159 = load i32, i32* %6, align 4
  %160 = load i32, i32* %7, align 4
  %161 = mul nsw i32 %159, %160
  %162 = icmp eq i32 %158, %161
  br i1 %162, label %163, label %164

163:                                              ; preds = %147
  store i32 0, i32* %1, align 4
  br label %173

164:                                              ; preds = %147
  br label %165

165:                                              ; preds = %164
  %166 = load i32, i32* %4, align 4
  %167 = add nsw i32 %166, -1
  store i32 %167, i32* %4, align 4
  br label %143

168:                                              ; preds = %143
  br label %169

169:                                              ; preds = %168
  %170 = load i32, i32* %9, align 4
  %171 = add nsw i32 %170, 1
  store i32 %171, i32* %9, align 4
  br label %36

172:                                              ; preds = %36
  store i32 0, i32* %1, align 4
  br label %173

173:                                              ; preds = %172, %163, %133, %99, %66
  %174 = load i32, i32* %1, align 4
  ret i32 %174
}

declare dso_local i32 @__isoc99_scanf(i8*, ...) #1

declare dso_local i32 @printf(i8*, ...) #1


!llvm.module.flags = !{!0}
!llvm.ident = !{!1}

!0 = !{i32 1, !"wchar_size", i32 4}
!1 = !{!"clang version 10.0.0-4ubuntu1 "}
